target datalayout = "e-m:e-p270:32:32-p271:32:32-p272:64:64-i64:64-i128:128-f80:128-n8:16:32:64-S128"
target triple = "x86_64-pc-linux-gnu"

%struct.AVPacket = type { ptr, i64, i64, ptr, i32, i32, i32, ptr, i32, i64, i64, ptr, ptr, %struct.AVRational }
%struct.AVRational = type { i32, i32 }
%struct.AVFormatContext = type { ptr, ptr, ptr, ptr, ptr, i32, i32, ptr, i32, ptr, i32, ptr, ptr, i64, i64, i64, i32, i32, i32, i64, i64, ptr, i32, i32, ptr, i32, i32, i32, i32, ptr, i64, i32, i32, %struct.AVIOInterruptCB, i32, i32, i32, i32, i64, i32, i32, i32, i32, i32, i32, i32, i32, i32, i32, i32, i32, i64, i32, i32, i32, i32, i32, ptr, ptr, ptr, ptr, i32, ptr, ptr, ptr, ptr, i32, ptr, ptr, i64, ptr, ptr, ptr, i64 }
%struct.AVIOInterruptCB = type { ptr, ptr }

@.str.2 = private unnamed_addr constant [35 x i8] c"invalid or unsupported frame_type\0A\00", align 1
@.str.3 = private unnamed_addr constant [27 x i8] c"packet size %d is invalid\0A\00", align 1

; Function Attrs: nounwind uwtable
define internal i32 @lmlm4_read_packet(ptr noundef %0, ptr noundef %1) #0 {
  %3 = alloca i32, align 4
  %4 = alloca ptr, align 8
  %5 = alloca ptr, align 8
  %6 = alloca ptr, align 8
  %7 = alloca i32, align 4
  %8 = alloca i32, align 4
  %9 = alloca i32, align 4
  %10 = alloca i32, align 4
  %11 = alloca i32, align 4
  %12 = alloca i32, align 4
  store ptr %0, ptr %4, align 8, !tbaa !16
  store ptr %1, ptr %5, align 8, !tbaa !45
  call void @llvm.lifetime.start.p0(i64 8, ptr %6) #5
  %13 = load ptr, ptr %4, align 8, !tbaa !16
  %14 = getelementptr inbounds nuw %struct.AVFormatContext, ptr %13, i32 0, i32 4
  %15 = load ptr, ptr %14, align 8, !tbaa !47
  store ptr %15, ptr %6, align 8, !tbaa !59
  call void @llvm.lifetime.start.p0(i64 4, ptr %7) #5
  call void @llvm.lifetime.start.p0(i64 4, ptr %8) #5
  call void @llvm.lifetime.start.p0(i64 4, ptr %9) #5
  call void @llvm.lifetime.start.p0(i64 4, ptr %10) #5
  call void @llvm.lifetime.start.p0(i64 4, ptr %11) #5
  %16 = load ptr, ptr %6, align 8, !tbaa !59
  %17 = call i32 @avio_rb16(ptr noundef %16)
  %18 = load ptr, ptr %6, align 8, !tbaa !59
  %19 = call i32 @avio_rb16(ptr noundef %18)
  store i32 %19, ptr %8, align 4, !tbaa !15
  %20 = load ptr, ptr %6, align 8, !tbaa !59
  %21 = call i32 @avio_rb32(ptr noundef %20)
  store i32 %21, ptr %9, align 4, !tbaa !15
  %22 = load i32, ptr %9, align 4, !tbaa !15
  %23 = sub i32 0, %22
  %24 = and i32 %23, 511
  store i32 %24, ptr %10, align 4, !tbaa !15
  %25 = load i32, ptr %8, align 4, !tbaa !15
  %26 = icmp ugt i32 %25, 4
  br i1 %26, label %30, label %27

27:                                               ; preds = %2
  %28 = load i32, ptr %8, align 4, !tbaa !15
  %29 = icmp eq i32 %28, 3
  br i1 %29, label %30, label %32

30:                                               ; preds = %27, %2
  %31 = load ptr, ptr %4, align 8, !tbaa !16
  call void (ptr, i32, ptr, ...) @av_log(ptr noundef %31, i32 noundef 16, ptr noundef @.str.2)
  store i32 -1094995529, ptr %3, align 4
  store i32 1, ptr %12, align 4
  br label %74

32:                                               ; preds = %27
  %33 = load i32, ptr %9, align 4, !tbaa !15
  %34 = icmp ugt i32 %33, 1048576
  br i1 %34, label %38, label %35

35:                                               ; preds = %32
  %36 = load i32, ptr %9, align 4, !tbaa !15
  %37 = icmp ule i32 %36, 8
  br i1 %37, label %38, label %41

38:                                               ; preds = %35, %32
  %39 = load ptr, ptr %4, align 8, !tbaa !16
  %40 = load i32, ptr %9, align 4, !tbaa !15
  call void (ptr, i32, ptr, ...) @av_log(ptr noundef %39, i32 noundef 16, ptr noundef @.str.3, i32 noundef %40)
  store i32 -1094995529, ptr %3, align 4
  store i32 1, ptr %12, align 4
  br label %74

41:                                               ; preds = %35
  %42 = load i32, ptr %9, align 4, !tbaa !15
  %43 = sub i32 %42, 8
  store i32 %43, ptr %11, align 4, !tbaa !15
  %44 = load ptr, ptr %6, align 8, !tbaa !59
  %45 = load ptr, ptr %5, align 8, !tbaa !45
  %46 = load i32, ptr %11, align 4, !tbaa !15
  %47 = call i32 @av_get_packet(ptr noundef %44, ptr noundef %45, i32 noundef %46)
  store i32 %47, ptr %7, align 4, !tbaa !15
  %48 = icmp sle i32 %47, 0
  br i1 %48, label %49, label %57

49:                                               ; preds = %41
  %50 = load i32, ptr %7, align 4, !tbaa !15
  %51 = icmp slt i32 %50, 0
  br i1 %51, label %52, label %54

52:                                               ; preds = %49
  %53 = load i32, ptr %7, align 4, !tbaa !15
  br label %55

54:                                               ; preds = %49
  br label %55

55:                                               ; preds = %54, %52
  %56 = phi i32 [ %53, %52 ], [ -5, %54 ]
  store i32 %56, ptr %3, align 4
  store i32 1, ptr %12, align 4
  br label %74

57:                                               ; preds = %41
  %58 = load ptr, ptr %6, align 8, !tbaa !59
  %59 = load i32, ptr %10, align 4, !tbaa !15
  %60 = zext i32 %59 to i64
  %61 = call i64 @avio_skip(ptr noundef %58, i64 noundef %60)
  %62 = load i32, ptr %8, align 4, !tbaa !15
  switch i32 %62, label %72 [
    i32 0, label %63
    i32 1, label %66
    i32 2, label %66
    i32 4, label %69
  ]

63:                                               ; preds = %57
  %64 = load ptr, ptr %5, align 8, !tbaa !45
  %65 = getelementptr inbounds nuw %struct.AVPacket, ptr %64, i32 0, i32 6
  store i32 1, ptr %65, align 8, !tbaa !60
  br label %66

66:                                               ; preds = %57, %57, %63
  %67 = load ptr, ptr %5, align 8, !tbaa !45
  %68 = getelementptr inbounds nuw %struct.AVPacket, ptr %67, i32 0, i32 5
  store i32 0, ptr %68, align 4, !tbaa !61
  br label %72

69:                                               ; preds = %57
  %70 = load ptr, ptr %5, align 8, !tbaa !45
  %71 = getelementptr inbounds nuw %struct.AVPacket, ptr %70, i32 0, i32 5
  store i32 1, ptr %71, align 4, !tbaa !61
  br label %72

72:                                               ; preds = %57, %69, %66
  %73 = load i32, ptr %7, align 4, !tbaa !15
  store i32 %73, ptr %3, align 4
  store i32 1, ptr %12, align 4
  br label %74

74:                                               ; preds = %72, %55, %38, %30
  call void @llvm.lifetime.end.p0(i64 4, ptr %11) #5
  call void @llvm.lifetime.end.p0(i64 4, ptr %10) #5
  call void @llvm.lifetime.end.p0(i64 4, ptr %9) #5
  call void @llvm.lifetime.end.p0(i64 4, ptr %8) #5
  call void @llvm.lifetime.end.p0(i64 4, ptr %7) #5
  call void @llvm.lifetime.end.p0(i64 8, ptr %6) #5
  %75 = load i32, ptr %3, align 4
  ret i32 %75
}