; Function Attrs: nounwind uwtable
define internal i32 @lmlm4_read_packet(ptr noundef %0, ptr noundef %1) #1 {
  %3 = getelementptr inbounds nuw i8, ptr %0, i64 32
  %4 = load ptr, ptr %3, align 8, !tbaa !38
  %5 = tail call i32 @avio_rb16(ptr noundef %4) #4
  %6 = tail call i32 @avio_rb16(ptr noundef %4) #4
  %7 = tail call i32 @avio_rb32(ptr noundef %4) #4
  %8 = sub i32 0, %7
  %9 = and i32 %8, 511
  %10 = icmp ugt i32 %6, 4
  %11 = icmp eq i32 %6, 3
  %or.cond = or i1 %10, %11
  br i1 %or.cond, label %12, label %13

12:                                               ; preds = %2
  tail call void (ptr, i32, ptr, ...) @av_log(ptr noundef nonnull %0, i32 noundef 16, ptr noundef nonnull @.str.2) #4
  br label %31

13:                                               ; preds = %2
  %14 = add i32 %7, -1048577
  %or.cond3 = icmp ult i32 %14, -1048568
  br i1 %or.cond3, label %15, label %16

15:                                               ; preds = %13
  tail call void (ptr, i32, ptr, ...) @av_log(ptr noundef nonnull %0, i32 noundef 16, ptr noundef nonnull @.str.3, i32 noundef %7) #4
  br label %31

16:                                               ; preds = %13
  %17 = add nsw i32 %7, -8
  %18 = tail call i32 @av_get_packet(ptr noundef %4, ptr noundef %1, i32 noundef %17) #4
  %19 = icmp slt i32 %18, 1
  br i1 %19, label %20, label %22

20:                                               ; preds = %16
  %.not = icmp eq i32 %18, 0
  %21 = select i1 %.not, i32 -5, i32 %18
  br label %31

22:                                               ; preds = %16
  %23 = zext nneg i32 %9 to i64
  %24 = tail call i64 @avio_skip(ptr noundef %4, i64 noundef %23) #4
  switch i32 %6, label %31 [
    i32 0, label %25
    i32 1, label %27
    i32 2, label %27
    i32 4, label %29
  ]

25:                                               ; preds = %22
  %26 = getelementptr inbounds nuw i8, ptr %1, i64 40
  store i32 1, ptr %26, align 8, !tbaa !50
  br label %27

27:                                               ; preds = %25, %22, %22
  %28 = getelementptr inbounds nuw i8, ptr %1, i64 36
  store i32 0, ptr %28, align 4, !tbaa !51
  br label %31

29:                                               ; preds = %22
  %30 = getelementptr inbounds nuw i8, ptr %1, i64 36
  store i32 1, ptr %30, align 4, !tbaa !51
  br label %31

31:                                               ; preds = %22, %27, %29, %20, %15, %12
  %.0 = phi i32 [ -1094995529, %12 ], [ -1094995529, %15 ], [ %21, %20 ], [ %18, %29 ], [ %18, %27 ], [ %18, %22 ]
  ret i32 %.0
}